; ModuleID = '55/1119.c'
source_filename = "55/1119.c"
target datalayout = "e-m:e-p270:32:32-p271:32:32-p272:64:64-i64:64-f80:128-n8:16:32:64-S128"
target triple = "x86_64-pc-linux-gnu"

@.str = private unnamed_addr constant [9 x i8] c"%d %s %d\00", align 1
@.str.1 = private unnamed_addr constant [3 x i8] c"%c\00", align 1

; Function Attrs: noinline nounwind uwtable
define dso_local i32 @main() #0 {
  %1 = alloca i32, align 4
  %2 = alloca i32, align 4
  %3 = alloca i32, align 4
  %4 = alloca i32, align 4
  %5 = alloca i32, align 4
  %6 = alloca i32, align 4
  %7 = alloca [40 x i32], align 16
  %8 = alloca i32, align 4
  %9 = alloca i32, align 4
  %10 = alloca i32, align 4
  %11 = alloca [40 x i8], align 16
  %12 = alloca [40 x i8], align 16
  store i32 0, i32* %1, align 4
  %13 = getelementptr inbounds [40 x i8], [40 x i8]* %11, i64 0, i64 0
  %14 = call i32 (i8*, ...) @__isoc99_scanf(i8* getelementptr inbounds ([9 x i8], [9 x i8]* @.str, i64 0, i64 0), i32* %9, i8* %13, i32* %10)
  %15 = getelementptr inbounds [40 x i8], [40 x i8]* %11, i64 0, i64 0
  %16 = call i64 @strlen(i8* %15) #3
  %17 = trunc i64 %16 to i32
  store i32 %17, i32* %5, align 4
  store i32 0, i32* %6, align 4
  store i32 0, i32* %2, align 4
  br label %18

18:                                               ; preds = %80, %0
  %19 = load i32, i32* %2, align 4
  %20 = load i32, i32* %5, align 4
  %21 = icmp slt i32 %19, %20
  br i1 %21, label %22, label %83

22:                                               ; preds = %18
  %23 = load i32, i32* %2, align 4
  %24 = sext i32 %23 to i64
  %25 = getelementptr inbounds [40 x i8], [40 x i8]* %11, i64 0, i64 %24
  %26 = load i8, i8* %25, align 1
  %27 = sext i8 %26 to i32
  %28 = icmp sge i32 %27, 65
  br i1 %28, label %29, label %44

29:                                               ; preds = %22
  %30 = load i32, i32* %2, align 4
  %31 = sext i32 %30 to i64
  %32 = getelementptr inbounds [40 x i8], [40 x i8]* %11, i64 0, i64 %31
  %33 = load i8, i8* %32, align 1
  %34 = sext i8 %33 to i32
  %35 = icmp sle i32 %34, 90
  br i1 %35, label %36, label %44

36:                                               ; preds = %29
  %37 = load i32, i32* %2, align 4
  %38 = sext i32 %37 to i64
  %39 = getelementptr inbounds [40 x i8], [40 x i8]* %11, i64 0, i64 %38
  %40 = load i8, i8* %39, align 1
  %41 = sext i8 %40 to i32
  %42 = sub nsw i32 %41, 65
  %43 = add nsw i32 %42, 10
  store i32 %43, i32* %8, align 4
  br label %74

44:                                               ; preds = %29, %22
  %45 = load i32, i32* %2, align 4
  %46 = sext i32 %45 to i64
  %47 = getelementptr inbounds [40 x i8], [40 x i8]* %11, i64 0, i64 %46
  %48 = load i8, i8* %47, align 1
  %49 = sext i8 %48 to i32
  %50 = icmp sge i32 %49, 97
  br i1 %50, label %51, label %66

51:                                               ; preds = %44
  %52 = load i32, i32* %2, align 4
  %53 = sext i32 %52 to i64
  %54 = getelementptr inbounds [40 x i8], [40 x i8]* %11, i64 0, i64 %53
  %55 = load i8, i8* %54, align 1
  %56 = sext i8 %55 to i32
  %57 = icmp sle i32 %56, 122
  br i1 %57, label %58, label %66

58:                                               ; preds = %51
  %59 = load i32, i32* %2, align 4
  %60 = sext i32 %59 to i64
  %61 = getelementptr inbounds [40 x i8], [40 x i8]* %11, i64 0, i64 %60
  %62 = load i8, i8* %61, align 1
  %63 = sext i8 %62 to i32
  %64 = sub nsw i32 %63, 97
  %65 = add nsw i32 %64, 10
  store i32 %65, i32* %8, align 4
  br label %73

66:                                               ; preds = %51, %44
  %67 = load i32, i32* %2, align 4
  %68 = sext i32 %67 to i64
  %69 = getelementptr inbounds [40 x i8], [40 x i8]* %11, i64 0, i64 %68
  %70 = load i8, i8* %69, align 1
  %71 = sext i8 %70 to i32
  %72 = sub nsw i32 %71, 48
  store i32 %72, i32* %8, align 4
  br label %73

73:                                               ; preds = %66, %58
  br label %74

74:                                               ; preds = %73, %36
  %75 = load i32, i32* %8, align 4
  %76 = load i32, i32* %6, align 4
  %77 = load i32, i32* %9, align 4
  %78 = mul nsw i32 %76, %77
  %79 = add nsw i32 %75, %78
  store i32 %79, i32* %6, align 4
  br label %80

80:                                               ; preds = %74
  %81 = load i32, i32* %2, align 4
  %82 = add nsw i32 %81, 1
  store i32 %82, i32* %2, align 4
  br label %18

83:                                               ; preds = %18
  store i32 0, i32* %3, align 4
  %84 = load i32, i32* %6, align 4
  store i32 %84, i32* %4, align 4
  store i32 0, i32* %2, align 4
  br label %85

85:                                               ; preds = %104, %83
  %86 = load i32, i32* %2, align 4
  %87 = icmp slt i32 %86, 40
  br i1 %87, label %88, label %107

88:                                               ; preds = %85
  %89 = load i32, i32* %4, align 4
  %90 = load i32, i32* %10, align 4
  %91 = srem i32 %89, %90
  %92 = load i32, i32* %2, align 4
  %93 = sext i32 %92 to i64
  %94 = getelementptr inbounds [40 x i32], [40 x i32]* %7, i64 0, i64 %93
  store i32 %91, i32* %94, align 4
  %95 = load i32, i32* %4, align 4
  %96 = load i32, i32* %10, align 4
  %97 = sdiv i32 %95, %96
  store i32 %97, i32* %4, align 4
  %98 = load i32, i32* %3, align 4
  %99 = add nsw i32 %98, 1
  store i32 %99, i32* %3, align 4
  %100 = load i32, i32* %4, align 4
  %101 = icmp eq i32 %100, 0
  br i1 %101, label %102, label %103

102:                                              ; preds = %88
  br label %107

103:                                              ; preds = %88
  br label %104

104:                                              ; preds = %103
  %105 = load i32, i32* %2, align 4
  %106 = add nsw i32 %105, 1
  store i32 %106, i32* %2, align 4
  br label %85

107:                                              ; preds = %102, %85
  store i32 0, i32* %2, align 4
  br label %108

108:                                              ; preds = %177, %107
  %109 = load i32, i32* %2, align 4
  %110 = load i32, i32* %3, align 4
  %111 = icmp slt i32 %109, %110
  br i1 %111, label %112, label %180

112:                                              ; preds = %108
  %113 = load i32, i32* %3, align 4
  %114 = sub nsw i32 %113, 1
  %115 = load i32, i32* %2, align 4
  %116 = sub nsw i32 %114, %115
  %117 = sext i32 %116 to i64
  %118 = getelementptr inbounds [40 x i32], [40 x i32]* %7, i64 0, i64 %117
  %119 = load i32, i32* %118, align 4
  %120 = icmp sge i32 %119, 0
  br i1 %120, label %121, label %143

121:                                              ; preds = %112
  %122 = load i32, i32* %3, align 4
  %123 = sub nsw i32 %122, 1
  %124 = load i32, i32* %2, align 4
  %125 = sub nsw i32 %123, %124
  %126 = sext i32 %125 to i64
  %127 = getelementptr inbounds [40 x i32], [40 x i32]* %7, i64 0, i64 %126
  %128 = load i32, i32* %127, align 4
  %129 = icmp sle i32 %128, 9
  br i1 %129, label %130, label %143

130:                                              ; preds = %121
  %131 = load i32, i32* %3, align 4
  %132 = sub nsw i32 %131, 1
  %133 = load i32, i32* %2, align 4
  %134 = sub nsw i32 %132, %133
  %135 = sext i32 %134 to i64
  %136 = getelementptr inbounds [40 x i32], [40 x i32]* %7, i64 0, i64 %135
  %137 = load i32, i32* %136, align 4
  %138 = add nsw i32 %137, 48
  %139 = trunc i32 %138 to i8
  %140 = load i32, i32* %2, align 4
  %141 = sext i32 %140 to i64
  %142 = getelementptr inbounds [40 x i8], [40 x i8]* %12, i64 0, i64 %141
  store i8 %139, i8* %142, align 1
  br label %176

143:                                              ; preds = %121, %112
  %144 = load i32, i32* %3, align 4
  %145 = sub nsw i32 %144, 1
  %146 = load i32, i32* %2, align 4
  %147 = sub nsw i32 %145, %146
  %148 = sext i32 %147 to i64
  %149 = getelementptr inbounds [40 x i32], [40 x i32]* %7, i64 0, i64 %148
  %150 = load i32, i32* %149, align 4
  %151 = icmp sge i32 %150, 10
  br i1 %151, label %152, label %175

152:                                              ; preds = %143
  %153 = load i32, i32* %3, align 4
  %154 = sub nsw i32 %153, 1
  %155 = load i32, i32* %2, align 4
  %156 = sub nsw i32 %154, %155
  %157 = sext i32 %156 to i64
  %158 = getelementptr inbounds [40 x i32], [40 x i32]* %7, i64 0, i64 %157
  %159 = load i32, i32* %158, align 4
  %160 = icmp sle i32 %159, 35
  br i1 %160, label %161, label %175

161:                                              ; preds = %152
  %162 = load i32, i32* %3, align 4
  %163 = sub nsw i32 %162, 1
  %164 = load i32, i32* %2, align 4
  %165 = sub nsw i32 %163, %164
  %166 = sext i32 %165 to i64
  %167 = getelementptr inbounds [40 x i32], [40 x i32]* %7, i64 0, i64 %166
  %168 = load i32, i32* %167, align 4
  %169 = sub nsw i32 %168, 10
  %170 = add nsw i32 %169, 65
  %171 = trunc i32 %170 to i8
  %172 = load i32, i32* %2, align 4
  %173 = sext i32 %172 to i64
  %174 = getelementptr inbounds [40 x i8], [40 x i8]* %12, i64 0, i64 %173
  store i8 %171, i8* %174, align 1
  br label %175

175:                                              ; preds = %161, %152, %143
  br label %176

176:                                              ; preds = %175, %130
  br label %177

177:                                              ; preds = %176
  %178 = load i32, i32* %2, align 4
  %179 = add nsw i32 %178, 1
  store i32 %179, i32* %2, align 4
  br label %108

180:                                              ; preds = %108
  store i32 0, i32* %2, align 4
  br label %181

181:                                              ; preds = %192, %180
  %182 = load i32, i32* %2, align 4
  %183 = load i32, i32* %3, align 4
  %184 = icmp slt i32 %182, %183
  br i1 %184, label %185, label %195

185:                                              ; preds = %181
  %186 = load i32, i32* %2, align 4
  %187 = sext i32 %186 to i64
  %188 = getelementptr inbounds [40 x i8], [40 x i8]* %12, i64 0, i64 %187
  %189 = load i8, i8* %188, align 1
  %190 = sext i8 %189 to i32
  %191 = call i32 (i8*, ...) @printf(i8* getelementptr inbounds ([3 x i8], [3 x i8]* @.str.1, i64 0, i64 0), i32 %190)
  br label %192

192:                                              ; preds = %185
  %193 = load i32, i32* %2, align 4
  %194 = add nsw i32 %193, 1
  store i32 %194, i32* %2, align 4
  br label %181

195:                                              ; preds = %181
  %196 = call i32 @getchar()
  %197 = call i32 @getchar()
  %198 = load i32, i32* %1, align 4
  ret i32 %198
}

declare dso_local i32 @__isoc99_scanf(i8*, ...) #1

; Function Attrs: nounwind readonly
declare dso_local i64 @strlen(i8*) #2

declare dso_local i32 @printf(i8*, ...) #1

declare dso_local i32 @getchar() #1


!llvm.module.flags = !{!0}
!llvm.ident = !{!1}

!0 = !{i32 1, !"wchar_size", i32 4}
!1 = !{!"clang version 10.0.0-4ubuntu1 "}
